; Function Attrs: mustprogress nofree norecurse nosync nounwind memory(readwrite, inaccessiblemem: none) uwtable
define dso_local void @_ZN4absl15AsciiStrToLowerEPNSt7__cxx1112basic_stringIcSt11char_traitsIcESaIcEEE(ptr noundef readonly captures(none) %0) local_unnamed_addr #1 {
  %2 = load ptr, ptr %0, align 8, !tbaa !12
  %3 = getelementptr inbounds nuw i8, ptr %0, i64 8
  %4 = load i64, ptr %3, align 8, !tbaa !18
  %5 = icmp ult i64 %4, 16
  br i1 %5, label %6, label %.lr.ph.i7.i

6:                                                ; preds = %1
  %.not.i.i = icmp eq i64 %4, 0
  br i1 %.not.i.i, label %_ZN4absl14ascii_internal16AsciiStrCaseFoldILb0EEEvPcPKcm.exit, label %.lr.ph.i.i

.lr.ph.i.i:                                       ; preds = %6, %.lr.ph.i.i
  %.09.i.i = phi i64 [ %13, %.lr.ph.i.i ], [ 0, %6 ]
  %7 = getelementptr inbounds nuw i8, ptr %2, i64 %.09.i.i
  %8 = load i8, ptr %7, align 1, !tbaa !4
  %9 = add i8 %8, -65
  %10 = icmp ult i8 %9, 26
  %11 = select i1 %10, i8 32, i8 0
  %12 = xor i8 %11, %8
  store i8 %12, ptr %7, align 1, !tbaa !4
  %13 = add nuw nsw i64 %.09.i.i, 1
  %exitcond.not.i.i = icmp eq i64 %13, %4
  br i1 %exitcond.not.i.i, label %_ZN4absl14ascii_internal16AsciiStrCaseFoldILb0EEEvPcPKcm.exit, label %.lr.ph.i.i, !llvm.loop !7

.lr.ph.i7.i:                                      ; preds = %1, %.lr.ph.i7.i
  %.09.i8.i = phi i64 [ %20, %.lr.ph.i7.i ], [ 0, %1 ]
  %14 = getelementptr inbounds nuw i8, ptr %2, i64 %.09.i8.i
  %15 = load i8, ptr %14, align 1, !tbaa !4
  %16 = add i8 %15, 63
  %17 = icmp slt i8 %16, -102
  %18 = select i1 %17, i8 32, i8 0
  %19 = xor i8 %18, %15
  store i8 %19, ptr %14, align 1, !tbaa !4
  %20 = add nuw i64 %.09.i8.i, 1
  %exitcond.not.i9.i = icmp eq i64 %20, %4
  br i1 %exitcond.not.i9.i, label %_ZN4absl14ascii_internal16AsciiStrCaseFoldILb0EEEvPcPKcm.exit, label %.lr.ph.i7.i, !llvm.loop !9

_ZN4absl14ascii_internal16AsciiStrCaseFoldILb0EEEvPcPKcm.exit: ; preds = %.lr.ph.i7.i, %.lr.ph.i.i, %6
  ret void
}